; Function Attrs: nofree norecurse nosync nounwind memory(read, argmem: readwrite, inaccessiblemem: none) uwtable
define internal fastcc i32 @vp89_rac_get_uint(ptr noundef captures(none) %0, i32 noundef range(i32 0, 256) %1) unnamed_addr #8 {
  %.not4 = icmp eq i32 %1, 0
  br i1 %.not4, label %._crit_edge, label %.lr.ph

.lr.ph:                                           ; preds = %2
  %3 = getelementptr inbounds nuw i8, ptr %0, i64 4
  %4 = getelementptr inbounds nuw i8, ptr %0, i64 24
  %5 = getelementptr inbounds nuw i8, ptr %0, i64 8
  %6 = getelementptr inbounds nuw i8, ptr %0, i64 16
  %.promoted = load i32, ptr %0, align 8, !tbaa !65
  %.promoted7 = load i32, ptr %3, align 4, !tbaa !66
  %.promoted9 = load i32, ptr %4, align 8, !tbaa !67
  br label %7

7:                                                ; preds = %.lr.ph, %vpx_rac_renorm.exit
  %8 = phi i32 [ %.promoted9, %.lr.ph ], [ %42, %vpx_rac_renorm.exit ]
  %.018.i8 = phi i32 [ %.promoted7, %.lr.ph ], [ %.018.i, %vpx_rac_renorm.exit ]
  %9 = phi i32 [ %.promoted, %.lr.ph ], [ %40, %vpx_rac_renorm.exit ]
  %.06 = phi i32 [ 0, %.lr.ph ], [ %43, %vpx_rac_renorm.exit ]
  %.035 = phi i32 [ %1, %.lr.ph ], [ %10, %vpx_rac_renorm.exit ]
  %10 = add nsw i32 %.035, -1
  %11 = shl i32 %.06, 1
  %12 = sext i32 %9 to i64
  %13 = getelementptr inbounds [256 x i8], ptr @ff_vpx_norm_shift, i64 0, i64 %12
  %14 = load i8, ptr %13, align 1, !tbaa !56
  %15 = zext i8 %14 to i32
  %16 = shl i32 %9, %15
  store i32 %16, ptr %0, align 8, !tbaa !65
  %17 = shl i32 %8, %15
  %18 = add nsw i32 %.018.i8, %15
  %19 = icmp sgt i32 %18, -1
  br i1 %19, label %20, label %vpx_rac_renorm.exit

20:                                               ; preds = %7
  %21 = load ptr, ptr %5, align 8, !tbaa !68
  %22 = load ptr, ptr %6, align 8, !tbaa !69
  %23 = icmp ult ptr %21, %22
  br i1 %23, label %24, label %vpx_rac_renorm.exit

24:                                               ; preds = %20
  %25 = getelementptr inbounds nuw i8, ptr %21, i64 2
  store ptr %25, ptr %5, align 8, !tbaa !70
  %26 = load i16, ptr %21, align 1, !tbaa !56
  %27 = tail call i16 @llvm.bswap.i16(i16 %26)
  %28 = zext i16 %27 to i32
  %29 = shl i32 %28, %18
  %30 = or i32 %29, %17
  %31 = add nsw i32 %18, -16
  br label %vpx_rac_renorm.exit

vpx_rac_renorm.exit:                              ; preds = %7, %20, %24
  %.018.i = phi i32 [ %31, %24 ], [ %18, %20 ], [ %18, %7 ]
  %.0.i = phi i32 [ %30, %24 ], [ %17, %20 ], [ %17, %7 ]
  store i32 %.018.i, ptr %3, align 4, !tbaa !66
  %32 = shl i32 %16, 7
  %33 = add i32 %32, -128
  %34 = ashr i32 %33, 8
  %35 = add nsw i32 %34, 1
  %36 = shl i32 %35, 16
  %37 = icmp uge i32 %.0.i, %36
  %38 = sub i32 %16, %35
  %39 = select i1 %37, i32 %36, i32 0
  %40 = select i1 %37, i32 %38, i32 %35
  %41 = zext i1 %37 to i32
  store i32 %40, ptr %0, align 8, !tbaa !65
  %42 = sub i32 %.0.i, %39
  store i32 %42, ptr %4, align 8, !tbaa !67
  %43 = or disjoint i32 %11, %41
  %.not = icmp eq i32 %10, 0
  br i1 %.not, label %._crit_edge, label %7, !llvm.loop !79

._crit_edge:                                      ; preds = %vpx_rac_renorm.exit, %2
  %.0.lcssa = phi i32 [ 0, %2 ], [ %43, %vpx_rac_renorm.exit ]
  ret i32 %.0.lcssa
}